; Function Attrs: mustprogress uwtable
define noundef zeroext i1 @_ZNK3g2o16OptimizableGraph4saveEPKci(ptr noundef nonnull align 8 dereferenceable(288) %0, ptr noundef %1, i32 noundef %2) local_unnamed_addr #4 align 2 personality ptr @__gxx_personality_v0 {
  %4 = alloca %"class.std::basic_ofstream", align 8
  call void @llvm.lifetime.start.p0(i64 512, ptr nonnull %4) #45
  call void @_ZNSt14basic_ofstreamIcSt11char_traitsIcEEC1EPKcSt13_Ios_Openmode(ptr noundef nonnull align 8 dereferenceable(248) %4, ptr noundef %1, i32 noundef 16)
  %5 = load ptr, ptr %4, align 8, !tbaa !9
  %6 = getelementptr i8, ptr %5, i64 -24
  %7 = load i64, ptr %6, align 8
  %8 = getelementptr inbounds i8, ptr %4, i64 %7
  %9 = getelementptr inbounds nuw i8, ptr %8, i64 32
  %10 = load i32, ptr %9, align 8, !tbaa !152
  %11 = and i32 %10, 5
  %.not = icmp eq i32 %11, 0
  br i1 %.not, label %14, label %19

12:                                               ; preds = %14
  %13 = landingpad { ptr, i32 }
          cleanup
  call void @_ZNSt14basic_ofstreamIcSt11char_traitsIcEED1Ev(ptr noundef nonnull align 8 dereferenceable(248) %4) #45
  call void @llvm.lifetime.end.p0(i64 512, ptr nonnull %4) #45
  resume { ptr, i32 } %13

14:                                               ; preds = %3
  %15 = load ptr, ptr %0, align 8, !tbaa !9
  %16 = getelementptr inbounds nuw i8, ptr %15, i64 152
  %17 = load ptr, ptr %16, align 8
  %18 = invoke noundef zeroext i1 %17(ptr noundef nonnull align 8 dereferenceable(288) %0, ptr noundef nonnull align 8 dereferenceable(8) %4, i32 noundef %2)
          to label %19 unwind label %12

19:                                               ; preds = %14, %3
  %.0 = phi i1 [ false, %3 ], [ %18, %14 ]
  call void @_ZNSt14basic_ofstreamIcSt11char_traitsIcEED1Ev(ptr noundef nonnull align 8 dereferenceable(248) %4) #45
  call void @llvm.lifetime.end.p0(i64 512, ptr nonnull %4) #45
  ret i1 %.0
}